target datalayout = "e-m:e-p270:32:32-p271:32:32-p272:64:64-i64:64-i128:128-f80:128-n8:16:32:64-S128"
target triple = "x86_64-unknown-linux-gnu"

%"class.snappy::internal::WorkingMemory" = type { ptr, i64, ptr, ptr, ptr }

; Function Attrs: mustprogress nounwind uwtable
define linkonce_odr dso_local noundef i32 @_ZN6snappy4Bits16Log2FloorNonZeroEj(i32 noundef %n) #0 comdat align 2 {
entry:
  %n.addr = alloca i32, align 4
  store i32 %n, ptr %n.addr, align 4
  %0 = load i32, ptr %n.addr, align 4
  %1 = call i32 @llvm.ctlz.i32(i32 %0, i1 true)
  %xor = xor i32 31, %1
  ret i32 %xor
}

; Function Attrs: mustprogress nounwind uwtable
define linkonce_odr dso_local noundef i32 @_ZN6snappy4Bits9Log2FloorEj(i32 noundef %n) #0 comdat align 2 {
entry:
  %n.addr = alloca i32, align 4
  store i32 %n, ptr %n.addr, align 4
  %0 = load i32, ptr %n.addr, align 4
  %cmp = icmp eq i32 %0, 0
  br i1 %cmp, label %cond.true, label %cond.false

cond.true:                                        ; preds = %entry
  br label %cond.end

cond.false:                                       ; preds = %entry
  %1 = load i32, ptr %n.addr, align 4
  %call = call noundef i32 @_ZN6snappy4Bits16Log2FloorNonZeroEj(i32 noundef %1)
  br label %cond.end

cond.end:                                         ; preds = %cond.false, %cond.true
  %cond = phi i32 [ -1, %cond.true ], [ %call, %cond.false ]
  ret i32 %cond
}

; Function Attrs: mustprogress nounwind uwtable
define internal noundef i32 @_ZN6snappy12_GLOBAL__N_118CalculateTableSizeEj(i32 noundef %input_size) #0 {
entry:
  %retval = alloca i32, align 4
  %input_size.addr = alloca i32, align 4
  store i32 %input_size, ptr %input_size.addr, align 4
  %0 = load i32, ptr %input_size.addr, align 4
  %conv = zext i32 %0 to i64
  %cmp = icmp ugt i64 %conv, 16384
  br i1 %cmp, label %if.then, label %if.end

if.then:                                          ; preds = %entry
  store i32 16384, ptr %retval, align 4
  br label %return

if.end:                                           ; preds = %entry
  %1 = load i32, ptr %input_size.addr, align 4
  %conv1 = zext i32 %1 to i64
  %cmp2 = icmp ult i64 %conv1, 256
  br i1 %cmp2, label %if.then3, label %if.end4

if.then3:                                         ; preds = %if.end
  store i32 256, ptr %retval, align 4
  br label %return

if.end4:                                          ; preds = %if.end
  %2 = load i32, ptr %input_size.addr, align 4
  %sub = sub i32 %2, 1
  %call = call noundef i32 @_ZN6snappy4Bits9Log2FloorEj(i32 noundef %sub)
  %shl = shl i32 2, %call
  store i32 %shl, ptr %retval, align 4
  br label %return

return:                                           ; preds = %if.end4, %if.then3, %if.then
  %3 = load i32, ptr %retval, align 4
  ret i32 %3
}

; Function Attrs: mustprogress nounwind uwtable
define dso_local noundef ptr @_ZNK6snappy8internal13WorkingMemory12GetHashTableEmPi(ptr noundef nonnull align 8 dereferenceable(40) %this, i64 noundef %fragment_size, ptr noundef %table_size) #0 align 2 {
entry:
  %this.addr = alloca ptr, align 8
  %fragment_size.addr = alloca i64, align 8
  %table_size.addr = alloca ptr, align 8
  %htsize = alloca i64, align 8
  store ptr %this, ptr %this.addr, align 8
  store i64 %fragment_size, ptr %fragment_size.addr, align 8
  store ptr %table_size, ptr %table_size.addr, align 8
  %this1 = load ptr, ptr %this.addr, align 8
  %0 = load i64, ptr %fragment_size.addr, align 8
  %conv = trunc i64 %0 to i32
  %call = call noundef i32 @_ZN6snappy12_GLOBAL__N_118CalculateTableSizeEj(i32 noundef %conv)
  %conv2 = zext i32 %call to i64
  store i64 %conv2, ptr %htsize, align 8
  %table_ = getelementptr inbounds %"class.snappy::internal::WorkingMemory", ptr %this1, i32 0, i32 2
  %1 = load ptr, ptr %table_, align 8
  %2 = load i64, ptr %htsize, align 8
  %mul = mul i64 %2, 2
  call void @llvm.memset.p0.i64(ptr align 2 %1, i8 0, i64 %mul, i1 false)
  %3 = load i64, ptr %htsize, align 8
  %conv3 = trunc i64 %3 to i32
  %4 = load ptr, ptr %table_size.addr, align 8
  store i32 %conv3, ptr %4, align 4
  %table_4 = getelementptr inbounds %"class.snappy::internal::WorkingMemory", ptr %this1, i32 0, i32 2
  %5 = load ptr, ptr %table_4, align 8
  ret ptr %5
}