; Function Attrs: mustprogress nofree norecurse nosync nounwind willreturn memory(write, argmem: readwrite, inaccessiblemem: none) uwtable
define dso_local noundef ptr @_ZNK6snappy8internal13WorkingMemory12GetHashTableEmPi(ptr nocapture noundef nonnull readonly align 8 dereferenceable(40) %this, i64 noundef %fragment_size, ptr nocapture noundef writeonly %table_size) local_unnamed_addr #4 align 2 {
entry:
  %conv = trunc i64 %fragment_size to i32
  %cmp.i = icmp ugt i32 %conv, 16384
  br i1 %cmp.i, label %_ZN6snappy12_GLOBAL__N_118CalculateTableSizeEj.exit, label %if.end.i

if.end.i:                                         ; preds = %entry
  %cmp2.i = icmp ult i32 %conv, 256
  br i1 %cmp2.i, label %_ZN6snappy12_GLOBAL__N_118CalculateTableSizeEj.exit, label %if.end4.i

if.end4.i:                                        ; preds = %if.end.i
  %sub.i = add nsw i32 %conv, -1
  %0 = tail call i32 @llvm.ctlz.i32(i32 %sub.i, i1 true), !range !5
  %xor.i.i.i = xor i32 %0, 31
  %shl.i = shl nuw nsw i32 2, %xor.i.i.i
  br label %_ZN6snappy12_GLOBAL__N_118CalculateTableSizeEj.exit

_ZN6snappy12_GLOBAL__N_118CalculateTableSizeEj.exit: ; preds = %entry, %if.end.i, %if.end4.i
  %retval.0.i = phi i32 [ %shl.i, %if.end4.i ], [ 16384, %entry ], [ 256, %if.end.i ]
  %table_ = getelementptr inbounds i8, ptr %this, i64 16
  %1 = load ptr, ptr %table_, align 8
  %2 = shl nuw nsw i32 %retval.0.i, 1
  %mul = zext nneg i32 %2 to i64
  tail call void @llvm.memset.p0.i64(ptr noundef nonnull align 2 dereferenceable(1) %1, i8 0, i64 %mul, i1 false)
  store i32 %retval.0.i, ptr %table_size, align 4
  %3 = load ptr, ptr %table_, align 8
  ret ptr %3
}